; Function Attrs: nounwind uwtable
define dso_local ptr @find_param_path_info(ptr noundef readonly captures(none) %0, ptr noundef %1) local_unnamed_addr #0 {
  %3 = getelementptr inbounds nuw i8, ptr %0, i64 48
  %4 = load ptr, ptr %3, align 8
  %5 = getelementptr inbounds nuw i8, ptr %4, i64 4
  %.not = icmp eq ptr %4, null
  br i1 %.not, label %._crit_edge24, label %.lr.ph

.lr.ph:                                           ; preds = %2
  %6 = getelementptr inbounds nuw i8, ptr %4, i64 16
  %7 = load i32, ptr %5, align 4
  %8 = icmp sgt i32 %7, 0
  br i1 %8, label %.lr.ph31, label %._crit_edge24

9:                                                ; preds = %.lr.ph31
  %indvars.iv.next = add nuw nsw i64 %indvars.iv, 1
  %10 = load i32, ptr %5, align 4
  %11 = sext i32 %10 to i64
  %12 = icmp slt i64 %indvars.iv.next, %11
  br i1 %12, label %.lr.ph31, label %._crit_edge24

.lr.ph31:                                         ; preds = %.lr.ph, %9
  %indvars.iv = phi i64 [ %indvars.iv.next, %9 ], [ 0, %.lr.ph ]
  %13 = load ptr, ptr %6, align 8
  %14 = getelementptr inbounds nuw %union.ListCell, ptr %13, i64 %indvars.iv
  %15 = load ptr, ptr %14, align 8
  %16 = getelementptr inbounds nuw i8, ptr %15, i64 8
  %17 = load ptr, ptr %16, align 8
  %18 = tail call zeroext i1 @bms_equal(ptr noundef %17, ptr noundef %1) #7
  br i1 %18, label %._crit_edge24, label %9

._crit_edge24:                                    ; preds = %.lr.ph31, %9, %.lr.ph, %2
  %19 = phi ptr [ null, %2 ], [ null, %.lr.ph ], [ null, %9 ], [ %15, %.lr.ph31 ]
  ret ptr %19
}